target datalayout = "e-m:e-p270:32:32-p271:32:32-p272:64:64-i64:64-i128:128-f80:128-n8:16:32:64-S128"
target triple = "x86_64-pc-linux-gnu"

; Function Attrs: nounwind null_pointer_is_valid sspstrong uwtable
define internal i32 @skipASNLength(i8 noundef zeroext %0) #5 {
  %2 = alloca i32, align 4
  %3 = alloca i8, align 1
  store i8 %0, ptr %3, align 1
  %4 = load i8, ptr %3, align 1
  %5 = zext i8 %4 to i32
  %6 = and i32 %5, 128
  %7 = icmp eq i32 %6, 0
  br i1 %7, label %8, label %9

8:                                                ; preds = %1
  store i32 1, ptr %2, align 4
  br label %15

9:                                                ; preds = %1
  %10 = load i8, ptr %3, align 1
  %11 = zext i8 %10 to i32
  %12 = and i32 %11, 3
  %13 = icmp eq i32 %12, 1
  %14 = select i1 %13, i32 2, i32 3
  store i32 %14, ptr %2, align 4
  br label %15

15:                                               ; preds = %9, %8
  %16 = load i32, ptr %2, align 4
  ret i32 %16
}

; Function Attrs: null_pointer_is_valid sspstrong uwtable
define internal zeroext i1 @find_sctpprim_variant1_data_offset(ptr noundef %0, ptr noundef %1, ptr noundef %2, ptr noundef %3, ptr noundef %4) #0 {
  %6 = alloca i1, align 1
  %7 = alloca ptr, align 8
  %8 = alloca ptr, align 8
  %9 = alloca ptr, align 8
  %10 = alloca ptr, align 8
  %11 = alloca ptr, align 8
  %12 = alloca i32, align 4
  %13 = alloca i8, align 1
  %14 = alloca i8, align 1
  %15 = alloca i8, align 1
  %16 = alloca i32, align 4
  store ptr %0, ptr %7, align 8
  store ptr %1, ptr %8, align 8
  store ptr %2, ptr %9, align 8
  store ptr %3, ptr %10, align 8
  store ptr %4, ptr %11, align 8
  call void @llvm.lifetime.start.p0(i64 4, ptr %12) #12
  %17 = load ptr, ptr %8, align 8
  %18 = load i32, ptr %17, align 4
  store i32 %18, ptr %12, align 4
  call void @llvm.lifetime.start.p0(i64 1, ptr %13) #12
  %19 = load ptr, ptr %7, align 8
  %20 = load i32, ptr %12, align 4
  %21 = add i32 %20, 1
  store i32 %21, ptr %12, align 4
  %22 = call zeroext i8 @tvb_get_uint8(ptr noundef %19, i32 noundef %20)
  store i8 %22, ptr %13, align 1
  call void @llvm.lifetime.start.p0(i64 1, ptr %14) #12
  call void @llvm.lifetime.start.p0(i64 1, ptr %15) #12
  %23 = load i8, ptr %13, align 1
  %24 = zext i8 %23 to i32
  switch i32 %24, label %26 [
    i32 4, label %25
    i32 98, label %25
  ]

25:                                               ; preds = %5, %5
  br label %27

26:                                               ; preds = %5
  store i1 false, ptr %6, align 1
  store i32 1, ptr %16, align 4
  br label %77

27:                                               ; preds = %25
  %28 = load ptr, ptr %7, align 8
  %29 = load i32, ptr %12, align 4
  %30 = call zeroext i8 @tvb_get_uint8(ptr noundef %28, i32 noundef %29)
  store i8 %30, ptr %15, align 1
  %31 = load i8, ptr %15, align 1
  %32 = call i32 @skipASNLength(i8 noundef zeroext %31)
  %33 = load i32, ptr %12, align 4
  %34 = add i32 %33, %32
  store i32 %34, ptr %12, align 4
  br label %35

35:                                               ; preds = %75, %70, %61, %27
  %36 = load ptr, ptr %7, align 8
  %37 = load i32, ptr %12, align 4
  %38 = call i32 @tvb_reported_length_remaining(ptr noundef %36, i32 noundef %37)
  %39 = icmp sgt i32 %38, 2
  br i1 %39, label %40, label %76

40:                                               ; preds = %35
  %41 = load ptr, ptr %7, align 8
  %42 = load i32, ptr %12, align 4
  %43 = add i32 %42, 1
  store i32 %43, ptr %12, align 4
  %44 = call zeroext i8 @tvb_get_uint8(ptr noundef %41, i32 noundef %42)
  store i8 %44, ptr %14, align 1
  %45 = load i8, ptr %14, align 1
  %46 = zext i8 %45 to i32
  %47 = icmp eq i32 %46, 25
  br i1 %47, label %48, label %51

48:                                               ; preds = %40
  %49 = load i32, ptr %12, align 4
  %50 = load ptr, ptr %8, align 8
  store i32 %49, ptr %50, align 4
  store i1 true, ptr %6, align 1
  store i32 1, ptr %16, align 4
  br label %77

51:                                               ; preds = %40
  %52 = load i32, ptr %12, align 4
  %53 = add i32 %52, 1
  store i32 %53, ptr %12, align 4
  %54 = load i8, ptr %14, align 1
  %55 = zext i8 %54 to i32
  switch i32 %55, label %73 [
    i32 10, label %56
    i32 1, label %61
    i32 30, label %61
    i32 13, label %61
    i32 9, label %64
    i32 29, label %70
    i32 12, label %70
  ]

56:                                               ; preds = %51
  %57 = load i32, ptr %12, align 4
  %58 = load ptr, ptr %11, align 8
  store i32 %57, ptr %58, align 4
  %59 = load i32, ptr %12, align 4
  %60 = add i32 %59, 2
  store i32 %60, ptr %12, align 4
  br label %74

61:                                               ; preds = %51, %51, %51
  %62 = load i32, ptr %12, align 4
  %63 = add i32 %62, 2
  store i32 %63, ptr %12, align 4
  br label %35, !llvm.loop !31

64:                                               ; preds = %51
  %65 = load i32, ptr %12, align 4
  %66 = load ptr, ptr %9, align 8
  store i32 %65, ptr %66, align 4
  %67 = load ptr, ptr %10, align 8
  store i16 4, ptr %67, align 2
  %68 = load i32, ptr %12, align 4
  %69 = add i32 %68, 4
  store i32 %69, ptr %12, align 4
  br label %74

70:                                               ; preds = %51, %51
  %71 = load i32, ptr %12, align 4
  %72 = add i32 %71, 4
  store i32 %72, ptr %12, align 4
  br label %35, !llvm.loop !31

73:                                               ; preds = %51
  store i1 false, ptr %6, align 1
  store i32 1, ptr %16, align 4
  br label %77

74:                                               ; preds = %64, %56
  br label %75

75:                                               ; preds = %74
  br label %35, !llvm.loop !31

76:                                               ; preds = %35
  store i1 false, ptr %6, align 1
  store i32 1, ptr %16, align 4
  br label %77

77:                                               ; preds = %76, %73, %48, %26
  call void @llvm.lifetime.end.p0(i64 1, ptr %15) #12
  call void @llvm.lifetime.end.p0(i64 1, ptr %14) #12
  call void @llvm.lifetime.end.p0(i64 1, ptr %13) #12
  call void @llvm.lifetime.end.p0(i64 4, ptr %12) #12
  %78 = load i1, ptr %6, align 1
  ret i1 %78
}