; Function Attrs: null_pointer_is_valid sspstrong uwtable
define internal fastcc noundef zeroext i1 @find_sctpprim_variant1_data_offset(ptr noundef %0, ptr noundef captures(none) %1, ptr noundef writeonly captures(none) %2, ptr noundef writeonly captures(none) %3, ptr noundef writeonly captures(none) %4) unnamed_addr #0 {
  %6 = load i32, ptr %1, align 4
  %7 = tail call zeroext i8 @tvb_get_uint8(ptr noundef %0, i32 noundef %6)
  switch i8 %7, label %.loopexit [
    i8 4, label %8
    i8 98, label %8
  ]

8:                                                ; preds = %5, %5
  %9 = add i32 %6, 1
  %10 = tail call zeroext i8 @tvb_get_uint8(ptr noundef %0, i32 noundef %9)
  %11 = icmp sgt i8 %10, -1
  %12 = and i8 %10, 3
  %13 = icmp eq i8 %12, 1
  %14 = select i1 %13, i32 2, i32 3
  %.0.i = select i1 %11, i32 1, i32 %14
  %15 = add i32 %.0.i, %9
  %16 = tail call i32 @tvb_reported_length_remaining(ptr noundef %0, i32 noundef %15)
  %17 = icmp sgt i32 %16, 2
  br i1 %17, label %.lr.ph, label %.loopexit

.lr.ph:                                           ; preds = %8, %.backedge
  %.02629 = phi i32 [ %26, %.backedge ], [ %15, %8 ]
  %18 = tail call zeroext i8 @tvb_get_uint8(ptr noundef %0, i32 noundef %.02629)
  %19 = icmp eq i8 %18, 25
  br i1 %19, label %20, label %22

20:                                               ; preds = %.lr.ph
  %21 = add i32 %.02629, 1
  store i32 %21, ptr %1, align 4
  br label %.loopexit

22:                                               ; preds = %.lr.ph
  %23 = add i32 %.02629, 2
  switch i8 %18, label %.loopexit [
    i8 10, label %24
    i8 1, label %25
    i8 30, label %25
    i8 13, label %25
    i8 9, label %29
    i8 29, label %.backedge
    i8 12, label %.backedge
  ]

24:                                               ; preds = %22
  store i32 %23, ptr %4, align 4
  br label %.backedge

25:                                               ; preds = %22, %22, %22
  br label %.backedge

.backedge:                                        ; preds = %22, %22, %29, %24, %25
  %.sink = phi i32 [ 6, %29 ], [ 4, %24 ], [ 4, %25 ], [ 6, %22 ], [ 6, %22 ]
  %26 = add i32 %.02629, %.sink
  %27 = tail call i32 @tvb_reported_length_remaining(ptr noundef %0, i32 noundef %26)
  %28 = icmp sgt i32 %27, 2
  br i1 %28, label %.lr.ph, label %.loopexit, !llvm.loop !31

29:                                               ; preds = %22
  store i32 %23, ptr %2, align 4
  store i16 4, ptr %3, align 2
  br label %.backedge

.loopexit:                                        ; preds = %22, %.backedge, %8, %5, %20
  %.0 = phi i1 [ true, %20 ], [ false, %5 ], [ false, %8 ], [ false, %.backedge ], [ false, %22 ]
  ret i1 %.0
}